; Function Attrs: cold nounwind uwtable
define internal fastcc range(i32 0, 2) i32 @test10(ptr %.0.val) unnamed_addr #6 {
  %1 = alloca [4 x ptr], align 16
  call void @llvm.lifetime.start.p0(i64 32, ptr nonnull %1) #13
  store ptr %.0.val, ptr %1, align 16, !tbaa !11
  %2 = getelementptr inbounds nuw i8, ptr %1, i64 8
  store ptr @.str.1, ptr %2, align 8, !tbaa !11
  %3 = getelementptr inbounds nuw i8, ptr %1, i64 16
  store ptr @.str.51, ptr %3, align 16, !tbaa !11
  %4 = getelementptr inbounds nuw i8, ptr %1, i64 24
  store ptr null, ptr %4, align 8, !tbaa !11
  %5 = load ptr, ptr @stdout, align 8, !tbaa !4
  %6 = tail call i64 @fwrite(ptr nonnull @.str.46, i64 41, i64 1, ptr %5)
  %7 = load ptr, ptr @stderr, align 8, !tbaa !4
  %8 = tail call i64 @fwrite(ptr nonnull @.str.47, i64 41, i64 1, ptr %7) #14
  %9 = load ptr, ptr @stdout, align 8, !tbaa !4
  %10 = tail call i32 @fflush(ptr noundef %9)
  %11 = load ptr, ptr @stderr, align 8, !tbaa !4
  %12 = tail call i32 @fflush(ptr noundef %11)
  %13 = call i32 @runChild(ptr noundef nonnull %1, i32 noundef 2, i32 noundef 3, i32 noundef 0, i32 noundef 1, i32 noundef 1, i32 poison, double noundef 3.000000e+01, i32 noundef 0, i32 noundef 1, i32 noundef 0, i32 noundef 1, i32 noundef 0)
  %14 = load ptr, ptr @stdout, align 8, !tbaa !4
  %15 = call i64 @fwrite(ptr nonnull @.str.48, i64 40, i64 1, ptr %14)
  %16 = load ptr, ptr @stderr, align 8, !tbaa !4
  %17 = call i64 @fwrite(ptr nonnull @.str.49, i64 40, i64 1, ptr %16) #14
  %18 = load ptr, ptr @stdout, align 8, !tbaa !4
  %19 = call i32 @fflush(ptr noundef %18)
  %20 = load ptr, ptr @stderr, align 8, !tbaa !4
  %21 = call i32 @fflush(ptr noundef %20)
  call void @llvm.lifetime.end.p0(i64 32, ptr nonnull %1) #13
  ret i32 %13
}